; Function Attrs: nounwind uwtable
define ptr @l_Std_Time_TimeZone_ZoneRules_timezoneAt(ptr noundef readonly captures(none) %0, ptr noundef %1) local_unnamed_addr #1 {
  %3 = getelementptr inbounds nuw i8, ptr %0, i64 8
  %4 = getelementptr inbounds nuw i8, ptr %0, i64 16
  %5 = load ptr, ptr %4, align 8, !tbaa !10
  %6 = tail call ptr @l_Std_Time_TimeZone_Transition_timezoneAt(ptr noundef %5, ptr noundef %1)
  %7 = ptrtoint ptr %6 to i64
  %8 = and i64 %7, 1
  %.not.i16 = icmp eq i64 %8, 0
  br i1 %.not.i16, label %lean_obj_tag.exit.thread, label %lean_obj_tag.exit

lean_obj_tag.exit:                                ; preds = %2
  %9 = and i64 %7, 8589934590
  %10 = icmp eq i64 %9, 0
  br i1 %10, label %lean_dec.exit13, label %21

lean_obj_tag.exit.thread:                         ; preds = %2
  %11 = getelementptr i8, ptr %6, i64 4
  %.val.i = load i32, ptr %11, align 4
  %12 = icmp ult i32 %.val.i, 16777216
  br i1 %12, label %.thread, label %21

.thread:                                          ; preds = %lean_obj_tag.exit.thread
  %13 = load i32, ptr %6, align 4, !tbaa !4
  %14 = icmp sgt i32 %13, 1
  br i1 %14, label %15, label %17, !prof !9

15:                                               ; preds = %.thread
  %16 = add nsw i32 %13, -1
  store i32 %16, ptr %6, align 4, !tbaa !4
  br label %lean_dec.exit13

17:                                               ; preds = %.thread
  %.not.i = icmp eq i32 %13, 0
  br i1 %.not.i, label %lean_dec.exit13, label %18

18:                                               ; preds = %17
  tail call void @lean_dec_ref_cold(ptr noundef nonnull %6) #6
  br label %lean_dec.exit13

lean_dec.exit13:                                  ; preds = %lean_obj_tag.exit, %18, %17, %15
  %19 = load ptr, ptr %3, align 8, !tbaa !10
  %20 = tail call ptr @l_Std_Time_TimeZone_LocalTimeType_getTimeZone(ptr noundef %19)
  br label %lean_dec.exit

21:                                               ; preds = %lean_obj_tag.exit.thread, %lean_obj_tag.exit
  %22 = getelementptr inbounds nuw i8, ptr %6, i64 8
  %23 = load ptr, ptr %22, align 8, !tbaa !10
  %24 = ptrtoint ptr %23 to i64
  %25 = and i64 %24, 1
  %.not = icmp eq i64 %25, 0
  br i1 %.not, label %26, label %lean_inc.exit

26:                                               ; preds = %21
  %.val.i17 = load i32, ptr %23, align 4, !tbaa !4
  %27 = icmp sgt i32 %.val.i17, 0
  br i1 %27, label %28, label %30, !prof !9

28:                                               ; preds = %26
  %29 = add nuw i32 %.val.i17, 1
  store i32 %29, ptr %23, align 4, !tbaa !4
  br label %lean_inc.exit

30:                                               ; preds = %26
  %.not.i18 = icmp eq i32 %.val.i17, 0
  br i1 %.not.i18, label %lean_inc.exit, label %31

31:                                               ; preds = %30
  tail call void @lean_inc_ref_cold(ptr noundef nonnull %23) #6
  br label %lean_inc.exit

lean_inc.exit:                                    ; preds = %31, %30, %28, %21
  br i1 %.not.i16, label %32, label %lean_dec.exit

32:                                               ; preds = %lean_inc.exit
  %33 = load i32, ptr %6, align 4, !tbaa !4
  %34 = icmp sgt i32 %33, 1
  br i1 %34, label %35, label %37, !prof !9

35:                                               ; preds = %32
  %36 = add nsw i32 %33, -1
  store i32 %36, ptr %6, align 4, !tbaa !4
  br label %lean_dec.exit

37:                                               ; preds = %32
  %.not.i14 = icmp eq i32 %33, 0
  br i1 %.not.i14, label %lean_dec.exit, label %38

38:                                               ; preds = %37
  tail call void @lean_dec_ref_cold(ptr noundef nonnull %6) #6
  br label %lean_dec.exit

lean_dec.exit:                                    ; preds = %lean_inc.exit, %35, %37, %38, %lean_dec.exit13
  %.0 = phi ptr [ %20, %lean_dec.exit13 ], [ %23, %38 ], [ %23, %37 ], [ %23, %35 ], [ %23, %lean_inc.exit ]
  ret ptr %.0
}